; Function Attrs: nounwind uwtable
define ptr @l_Lean_Server_FileWorker_WorkerContext_updateRequestsInFlight___lambda__1(ptr noundef %0, ptr noundef %1) #0 {
  %.val = load i32, ptr %1, align 4, !tbaa !10
  %3 = icmp eq i32 %.val, 1
  br i1 %3, label %4, label %8

4:                                                ; preds = %2
  %5 = getelementptr inbounds nuw i8, ptr %1, i64 16
  %6 = load ptr, ptr %5, align 8, !tbaa !4
  %7 = tail call ptr @lean_apply_1(ptr noundef %0, ptr noundef %6) #7
  store ptr %7, ptr %5, align 8, !tbaa !4
  br label %56

8:                                                ; preds = %2
  %9 = getelementptr inbounds nuw i8, ptr %1, i64 8
  %10 = load ptr, ptr %9, align 8, !tbaa !4
  %11 = getelementptr inbounds nuw i8, ptr %1, i64 16
  %12 = load ptr, ptr %11, align 8, !tbaa !4
  %13 = getelementptr inbounds nuw i8, ptr %1, i64 24
  %14 = load ptr, ptr %13, align 8, !tbaa !4
  %15 = ptrtoint ptr %14 to i64
  %16 = and i64 %15, 1
  %.not = icmp eq i64 %16, 0
  br i1 %.not, label %17, label %lean_inc.exit25

17:                                               ; preds = %8
  %.val.i = load i32, ptr %14, align 4, !tbaa !10
  %18 = icmp sgt i32 %.val.i, 0
  br i1 %18, label %19, label %21, !prof !13

19:                                               ; preds = %17
  %20 = add nuw i32 %.val.i, 1
  store i32 %20, ptr %14, align 4, !tbaa !10
  br label %lean_inc.exit25

21:                                               ; preds = %17
  %.not.i26 = icmp eq i32 %.val.i, 0
  br i1 %.not.i26, label %lean_inc.exit25, label %22

22:                                               ; preds = %21
  tail call void @lean_inc_ref_cold(ptr noundef nonnull %14) #7
  br label %lean_inc.exit25

lean_inc.exit25:                                  ; preds = %22, %21, %19, %8
  %23 = ptrtoint ptr %12 to i64
  %24 = and i64 %23, 1
  %.not33 = icmp eq i64 %24, 0
  br i1 %.not33, label %25, label %lean_inc.exit24

25:                                               ; preds = %lean_inc.exit25
  %.val.i27 = load i32, ptr %12, align 4, !tbaa !10
  %26 = icmp sgt i32 %.val.i27, 0
  br i1 %26, label %27, label %29, !prof !13

27:                                               ; preds = %25
  %28 = add nuw i32 %.val.i27, 1
  store i32 %28, ptr %12, align 4, !tbaa !10
  br label %lean_inc.exit24

29:                                               ; preds = %25
  %.not.i28 = icmp eq i32 %.val.i27, 0
  br i1 %.not.i28, label %lean_inc.exit24, label %30

30:                                               ; preds = %29
  tail call void @lean_inc_ref_cold(ptr noundef nonnull %12) #7
  br label %lean_inc.exit24

lean_inc.exit24:                                  ; preds = %30, %29, %27, %lean_inc.exit25
  %31 = ptrtoint ptr %10 to i64
  %32 = and i64 %31, 1
  %.not34 = icmp eq i64 %32, 0
  br i1 %.not34, label %33, label %lean_inc.exit

33:                                               ; preds = %lean_inc.exit24
  %.val.i30 = load i32, ptr %10, align 4, !tbaa !10
  %34 = icmp sgt i32 %.val.i30, 0
  br i1 %34, label %35, label %37, !prof !13

35:                                               ; preds = %33
  %36 = add nuw i32 %.val.i30, 1
  store i32 %36, ptr %10, align 4, !tbaa !10
  br label %lean_inc.exit

37:                                               ; preds = %33
  %.not.i31 = icmp eq i32 %.val.i30, 0
  br i1 %.not.i31, label %lean_inc.exit, label %38

38:                                               ; preds = %37
  tail call void @lean_inc_ref_cold(ptr noundef nonnull %10) #7
  br label %lean_inc.exit

lean_inc.exit:                                    ; preds = %38, %37, %35, %lean_inc.exit24
  %39 = ptrtoint ptr %1 to i64
  %40 = and i64 %39, 1
  %.not35 = icmp eq i64 %40, 0
  br i1 %.not35, label %41, label %lean_dec.exit

41:                                               ; preds = %lean_inc.exit
  %42 = load i32, ptr %1, align 4, !tbaa !10
  %43 = icmp sgt i32 %42, 1
  br i1 %43, label %44, label %46, !prof !13

44:                                               ; preds = %41
  %45 = add nsw i32 %42, -1
  store i32 %45, ptr %1, align 4, !tbaa !10
  br label %lean_dec.exit

46:                                               ; preds = %41
  %.not.i = icmp eq i32 %42, 0
  br i1 %.not.i, label %lean_dec.exit, label %47

47:                                               ; preds = %46
  tail call void @lean_dec_ref_cold(ptr noundef nonnull %1) #7
  br label %lean_dec.exit

lean_dec.exit:                                    ; preds = %47, %46, %44, %lean_inc.exit
  %48 = tail call ptr @lean_apply_1(ptr noundef %0, ptr noundef %12) #7
  tail call void @lean_inc_heartbeat() #7
  %49 = tail call noalias ptr @mi_malloc_small(i64 noundef 32) #7
  %50 = icmp eq ptr %49, null
  br i1 %50, label %51, label %lean_alloc_ctor.exit

51:                                               ; preds = %lean_dec.exit
  tail call void @lean_internal_panic_out_of_memory() #8
  unreachable

lean_alloc_ctor.exit:                             ; preds = %lean_dec.exit
  %52 = getelementptr inbounds nuw i8, ptr %49, i64 4
  store i32 1, ptr %49, align 4, !tbaa !10
  store i32 196640, ptr %52, align 4
  %53 = getelementptr inbounds nuw i8, ptr %49, i64 8
  store ptr %10, ptr %53, align 8, !tbaa !4
  %54 = getelementptr inbounds nuw i8, ptr %49, i64 16
  store ptr %48, ptr %54, align 8, !tbaa !4
  %55 = getelementptr inbounds nuw i8, ptr %49, i64 24
  store ptr %14, ptr %55, align 8, !tbaa !4
  br label %56

56:                                               ; preds = %lean_alloc_ctor.exit, %4
  %.0 = phi ptr [ %1, %4 ], [ %49, %lean_alloc_ctor.exit ]
  ret ptr %.0
}